target datalayout = "e-m:e-p270:32:32-p271:32:32-p272:64:64-i64:64-i128:128-f80:128-n8:16:32:64-S128"
target triple = "x86_64-pc-linux-gnu"

%struct.Ssw_Man_t_ = type { ptr, i32, ptr, ptr, ptr, ptr, i32, ptr, ptr, ptr, i32, i32, i32, i32, i32, i32, i32, i32, i32, i32, i32, ptr, i32, ptr, i32, i32, i32, i32, ptr, ptr, ptr, i32, ptr, i32, i32, ptr, ptr, ptr, i32, ptr, i32, i32, i32, i32, i32, i32, i32, i32, i32, i32, i32, i32, i32, i32, i32, i32, i32, i32, i32, i32, i32, i32, i64, i64, i64, i64, i64, i64, i64, i64, i64, i64 }
%struct.Ssw_Pars_t_ = type { i32, i32, i32, i32, i32, i32, i32, i32, i32, i32, i32, i32, i32, i32, i32, i32, i32, i32, i32, i32, i32, i32, i32, i32, i32, i32, i32, i32, i32, i32, i32, i32, i32, i32, i32, i32, i32, i32, i32, i32, i32, i32, ptr, ptr }
%struct.Vec_Ptr_t_ = type { i32, i32, ptr }
%struct.Vec_Int_t_ = type { i32, i32, ptr }

; Function Attrs: inlinehint nounwind uwtable
define internal void @Vec_PtrFree(ptr noundef %0) #6 {
  %2 = alloca ptr, align 8
  store ptr %0, ptr %2, align 8, !tbaa !45
  %3 = load ptr, ptr %2, align 8, !tbaa !45
  %4 = getelementptr inbounds nuw %struct.Vec_Ptr_t_, ptr %3, i32 0, i32 2
  %5 = load ptr, ptr %4, align 8, !tbaa !49
  %6 = icmp ne ptr %5, null
  br i1 %6, label %7, label %13

7:                                                ; preds = %1
  %8 = load ptr, ptr %2, align 8, !tbaa !45
  %9 = getelementptr inbounds nuw %struct.Vec_Ptr_t_, ptr %8, i32 0, i32 2
  %10 = load ptr, ptr %9, align 8, !tbaa !49
  call void @free(ptr noundef %10) #10
  %11 = load ptr, ptr %2, align 8, !tbaa !45
  %12 = getelementptr inbounds nuw %struct.Vec_Ptr_t_, ptr %11, i32 0, i32 2
  store ptr null, ptr %12, align 8, !tbaa !49
  br label %14

13:                                               ; preds = %1
  br label %14

14:                                               ; preds = %13, %7
  %15 = load ptr, ptr %2, align 8, !tbaa !45
  %16 = icmp ne ptr %15, null
  br i1 %16, label %17, label %19

17:                                               ; preds = %14
  %18 = load ptr, ptr %2, align 8, !tbaa !45
  call void @free(ptr noundef %18) #10
  store ptr null, ptr %2, align 8, !tbaa !45
  br label %20

19:                                               ; preds = %14
  br label %20

20:                                               ; preds = %19, %17
  ret void
}

; Function Attrs: inlinehint nounwind uwtable
define internal void @Vec_IntFree(ptr noundef %0) #6 {
  %2 = alloca ptr, align 8
  store ptr %0, ptr %2, align 8, !tbaa !52
  %3 = load ptr, ptr %2, align 8, !tbaa !52
  %4 = getelementptr inbounds nuw %struct.Vec_Int_t_, ptr %3, i32 0, i32 2
  %5 = load ptr, ptr %4, align 8, !tbaa !56
  %6 = icmp ne ptr %5, null
  br i1 %6, label %7, label %13

7:                                                ; preds = %1
  %8 = load ptr, ptr %2, align 8, !tbaa !52
  %9 = getelementptr inbounds nuw %struct.Vec_Int_t_, ptr %8, i32 0, i32 2
  %10 = load ptr, ptr %9, align 8, !tbaa !56
  call void @free(ptr noundef %10) #10
  %11 = load ptr, ptr %2, align 8, !tbaa !52
  %12 = getelementptr inbounds nuw %struct.Vec_Int_t_, ptr %11, i32 0, i32 2
  store ptr null, ptr %12, align 8, !tbaa !56
  br label %14

13:                                               ; preds = %1
  br label %14

14:                                               ; preds = %13, %7
  %15 = load ptr, ptr %2, align 8, !tbaa !52
  %16 = icmp ne ptr %15, null
  br i1 %16, label %17, label %19

17:                                               ; preds = %14
  %18 = load ptr, ptr %2, align 8, !tbaa !52
  call void @free(ptr noundef %18) #10
  store ptr null, ptr %2, align 8, !tbaa !52
  br label %20

19:                                               ; preds = %14
  br label %20

20:                                               ; preds = %19, %17
  ret void
}

; Function Attrs: nounwind uwtable
define void @Ssw_ManStop(ptr noundef %0) #0 {
  %2 = alloca ptr, align 8
  store ptr %0, ptr %2, align 8, !tbaa !10
  %3 = load ptr, ptr %2, align 8, !tbaa !10
  %4 = getelementptr inbounds nuw %struct.Ssw_Man_t_, ptr %3, i32 0, i32 30
  %5 = load ptr, ptr %4, align 8, !tbaa !107
  %6 = icmp ne ptr %5, null
  br i1 %6, label %7, label %13

7:                                                ; preds = %1
  %8 = load ptr, ptr %2, align 8, !tbaa !10
  %9 = getelementptr inbounds nuw %struct.Ssw_Man_t_, ptr %8, i32 0, i32 30
  %10 = load ptr, ptr %9, align 8, !tbaa !107
  call void @free(ptr noundef %10) #10
  %11 = load ptr, ptr %2, align 8, !tbaa !10
  %12 = getelementptr inbounds nuw %struct.Ssw_Man_t_, ptr %11, i32 0, i32 30
  store ptr null, ptr %12, align 8, !tbaa !107
  br label %14

13:                                               ; preds = %1
  br label %14

14:                                               ; preds = %13, %7
  %15 = load ptr, ptr %2, align 8, !tbaa !10
  %16 = getelementptr inbounds nuw %struct.Ssw_Man_t_, ptr %15, i32 0, i32 0
  %17 = load ptr, ptr %16, align 8, !tbaa !12
  %18 = getelementptr inbounds nuw %struct.Ssw_Pars_t_, ptr %17, i32 0, i32 28
  %19 = load i32, ptr %18, align 8, !tbaa !108
  %20 = icmp ne i32 %19, 0
  br i1 %20, label %21, label %23

21:                                               ; preds = %14
  %22 = load ptr, ptr %2, align 8, !tbaa !10
  call void @Ssw_ManPrintStats(ptr noundef %22)
  br label %23

23:                                               ; preds = %21, %14
  %24 = load ptr, ptr %2, align 8, !tbaa !10
  %25 = getelementptr inbounds nuw %struct.Ssw_Man_t_, ptr %24, i32 0, i32 5
  %26 = load ptr, ptr %25, align 8, !tbaa !109
  %27 = icmp ne ptr %26, null
  br i1 %27, label %28, label %32

28:                                               ; preds = %23
  %29 = load ptr, ptr %2, align 8, !tbaa !10
  %30 = getelementptr inbounds nuw %struct.Ssw_Man_t_, ptr %29, i32 0, i32 5
  %31 = load ptr, ptr %30, align 8, !tbaa !109
  call void @Ssw_ClassesStop(ptr noundef %31)
  br label %32

32:                                               ; preds = %28, %23
  %33 = load ptr, ptr %2, align 8, !tbaa !10
  %34 = getelementptr inbounds nuw %struct.Ssw_Man_t_, ptr %33, i32 0, i32 32
  %35 = load ptr, ptr %34, align 8, !tbaa !110
  %36 = icmp ne ptr %35, null
  br i1 %36, label %37, label %41

37:                                               ; preds = %32
  %38 = load ptr, ptr %2, align 8, !tbaa !10
  %39 = getelementptr inbounds nuw %struct.Ssw_Man_t_, ptr %38, i32 0, i32 32
  %40 = load ptr, ptr %39, align 8, !tbaa !110
  call void @Ssw_SmlStop(ptr noundef %40)
  br label %41

41:                                               ; preds = %37, %32
  %42 = load ptr, ptr %2, align 8, !tbaa !10
  %43 = getelementptr inbounds nuw %struct.Ssw_Man_t_, ptr %42, i32 0, i32 23
  %44 = load ptr, ptr %43, align 8, !tbaa !111
  %45 = icmp ne ptr %44, null
  br i1 %45, label %46, label %50

46:                                               ; preds = %41
  %47 = load ptr, ptr %2, align 8, !tbaa !10
  %48 = getelementptr inbounds nuw %struct.Ssw_Man_t_, ptr %47, i32 0, i32 23
  %49 = load ptr, ptr %48, align 8, !tbaa !111
  call void @Vec_IntFree(ptr noundef %49)
  br label %50

50:                                               ; preds = %46, %41
  %51 = load ptr, ptr %2, align 8, !tbaa !10
  %52 = getelementptr inbounds nuw %struct.Ssw_Man_t_, ptr %51, i32 0, i32 37
  %53 = load ptr, ptr %52, align 8, !tbaa !112
  %54 = icmp ne ptr %53, null
  br i1 %54, label %55, label %59

55:                                               ; preds = %50
  %56 = load ptr, ptr %2, align 8, !tbaa !10
  %57 = getelementptr inbounds nuw %struct.Ssw_Man_t_, ptr %56, i32 0, i32 37
  %58 = load ptr, ptr %57, align 8, !tbaa !112
  call void @Vec_IntFree(ptr noundef %58)
  br label %59

59:                                               ; preds = %55, %50
  %60 = load ptr, ptr %2, align 8, !tbaa !10
  %61 = getelementptr inbounds nuw %struct.Ssw_Man_t_, ptr %60, i32 0, i32 35
  %62 = load ptr, ptr %61, align 8, !tbaa !34
  call void @Vec_PtrFree(ptr noundef %62)
  %63 = load ptr, ptr %2, align 8, !tbaa !10
  %64 = getelementptr inbounds nuw %struct.Ssw_Man_t_, ptr %63, i32 0, i32 36
  %65 = load ptr, ptr %64, align 8, !tbaa !35
  call void @Vec_PtrFree(ptr noundef %65)
  %66 = load ptr, ptr %2, align 8, !tbaa !10
  %67 = getelementptr inbounds nuw %struct.Ssw_Man_t_, ptr %66, i32 0, i32 28
  %68 = load ptr, ptr %67, align 8, !tbaa !32
  call void @Vec_PtrFree(ptr noundef %68)
  %69 = load ptr, ptr %2, align 8, !tbaa !10
  %70 = getelementptr inbounds nuw %struct.Ssw_Man_t_, ptr %69, i32 0, i32 29
  %71 = load ptr, ptr %70, align 8, !tbaa !33
  call void @Vec_IntFree(ptr noundef %71)
  %72 = load ptr, ptr %2, align 8, !tbaa !10
  %73 = getelementptr inbounds nuw %struct.Ssw_Man_t_, ptr %72, i32 0, i32 21
  %74 = load ptr, ptr %73, align 8, !tbaa !28
  call void @Vec_PtrFree(ptr noundef %74)
  %75 = load ptr, ptr %2, align 8, !tbaa !10
  %76 = getelementptr inbounds nuw %struct.Ssw_Man_t_, ptr %75, i32 0, i32 4
  %77 = load ptr, ptr %76, align 8, !tbaa !27
  %78 = icmp ne ptr %77, null
  br i1 %78, label %79, label %85

79:                                               ; preds = %59
  %80 = load ptr, ptr %2, align 8, !tbaa !10
  %81 = getelementptr inbounds nuw %struct.Ssw_Man_t_, ptr %80, i32 0, i32 4
  %82 = load ptr, ptr %81, align 8, !tbaa !27
  call void @free(ptr noundef %82) #10
  %83 = load ptr, ptr %2, align 8, !tbaa !10
  %84 = getelementptr inbounds nuw %struct.Ssw_Man_t_, ptr %83, i32 0, i32 4
  store ptr null, ptr %84, align 8, !tbaa !27
  br label %86

85:                                               ; preds = %59
  br label %86

86:                                               ; preds = %85, %79
  %87 = load ptr, ptr %2, align 8, !tbaa !10
  %88 = getelementptr inbounds nuw %struct.Ssw_Man_t_, ptr %87, i32 0, i32 39
  %89 = load ptr, ptr %88, align 8, !tbaa !31
  %90 = icmp ne ptr %89, null
  br i1 %90, label %91, label %97

91:                                               ; preds = %86
  %92 = load ptr, ptr %2, align 8, !tbaa !10
  %93 = getelementptr inbounds nuw %struct.Ssw_Man_t_, ptr %92, i32 0, i32 39
  %94 = load ptr, ptr %93, align 8, !tbaa !31
  call void @free(ptr noundef %94) #10
  %95 = load ptr, ptr %2, align 8, !tbaa !10
  %96 = getelementptr inbounds nuw %struct.Ssw_Man_t_, ptr %95, i32 0, i32 39
  store ptr null, ptr %96, align 8, !tbaa !31
  br label %98

97:                                               ; preds = %86
  br label %98

98:                                               ; preds = %97, %91
  %99 = load ptr, ptr %2, align 8, !tbaa !10
  %100 = icmp ne ptr %99, null
  br i1 %100, label %101, label %103

101:                                              ; preds = %98
  %102 = load ptr, ptr %2, align 8, !tbaa !10
  call void @free(ptr noundef %102) #10
  store ptr null, ptr %2, align 8, !tbaa !10
  br label %104

103:                                              ; preds = %98
  br label %104

104:                                              ; preds = %103, %101
  ret void
}