; Function Attrs: nounwind uwtable
define void @Ssw_ManStop(ptr noundef captures(none) %0) local_unnamed_addr #0 {
  %2 = getelementptr inbounds nuw i8, ptr %0, i64 184
  %3 = load ptr, ptr %2, align 8, !tbaa !100
  %.not = icmp eq ptr %3, null
  br i1 %.not, label %5, label %4

4:                                                ; preds = %1
  tail call void @free(ptr noundef nonnull %3) #12
  store ptr null, ptr %2, align 8, !tbaa !100
  br label %5

5:                                                ; preds = %1, %4
  %6 = load ptr, ptr %0, align 8, !tbaa !3
  %7 = getelementptr inbounds nuw i8, ptr %6, i64 112
  %8 = load i32, ptr %7, align 8, !tbaa !101
  %.not32 = icmp eq i32 %8, 0
  br i1 %.not32, label %10, label %9

9:                                                ; preds = %5
  tail call void @Ssw_ManPrintStats(ptr noundef nonnull %0)
  br label %10

10:                                               ; preds = %9, %5
  %11 = getelementptr inbounds nuw i8, ptr %0, i64 40
  %12 = load ptr, ptr %11, align 8, !tbaa !102
  %.not33 = icmp eq ptr %12, null
  br i1 %.not33, label %14, label %13

13:                                               ; preds = %10
  tail call void @Ssw_ClassesStop(ptr noundef nonnull %12) #12
  br label %14

14:                                               ; preds = %13, %10
  %15 = getelementptr inbounds nuw i8, ptr %0, i64 200
  %16 = load ptr, ptr %15, align 8, !tbaa !103
  %.not34 = icmp eq ptr %16, null
  br i1 %.not34, label %18, label %17

17:                                               ; preds = %14
  tail call void @Ssw_SmlStop(ptr noundef nonnull %16) #12
  br label %18

18:                                               ; preds = %17, %14
  %19 = getelementptr inbounds nuw i8, ptr %0, i64 144
  %20 = load ptr, ptr %19, align 8, !tbaa !104
  %.not35 = icmp eq ptr %20, null
  br i1 %.not35, label %25, label %21

21:                                               ; preds = %18
  %22 = getelementptr inbounds nuw i8, ptr %20, i64 8
  %23 = load ptr, ptr %22, align 8, !tbaa !46
  %.not.i = icmp eq ptr %23, null
  br i1 %.not.i, label %Vec_IntFree.exit, label %24

24:                                               ; preds = %21
  tail call void @free(ptr noundef nonnull %23) #12
  br label %Vec_IntFree.exit

Vec_IntFree.exit:                                 ; preds = %21, %24
  tail call void @free(ptr noundef nonnull %20) #12
  br label %25

25:                                               ; preds = %Vec_IntFree.exit, %18
  %26 = getelementptr inbounds nuw i8, ptr %0, i64 232
  %27 = load ptr, ptr %26, align 8, !tbaa !105
  %.not36 = icmp eq ptr %27, null
  br i1 %.not36, label %32, label %28

28:                                               ; preds = %25
  %29 = getelementptr inbounds nuw i8, ptr %27, i64 8
  %30 = load ptr, ptr %29, align 8, !tbaa !46
  %.not.i39 = icmp eq ptr %30, null
  br i1 %.not.i39, label %Vec_IntFree.exit40, label %31

31:                                               ; preds = %28
  tail call void @free(ptr noundef nonnull %30) #12
  br label %Vec_IntFree.exit40

Vec_IntFree.exit40:                               ; preds = %28, %31
  tail call void @free(ptr noundef nonnull %27) #12
  br label %32

32:                                               ; preds = %Vec_IntFree.exit40, %25
  %33 = getelementptr inbounds nuw i8, ptr %0, i64 216
  %34 = load ptr, ptr %33, align 8, !tbaa !48
  %35 = getelementptr inbounds nuw i8, ptr %34, i64 8
  %36 = load ptr, ptr %35, align 8, !tbaa !35
  %.not.i41 = icmp eq ptr %36, null
  br i1 %.not.i41, label %Vec_PtrFree.exit, label %37

37:                                               ; preds = %32
  tail call void @free(ptr noundef nonnull %36) #12
  br label %Vec_PtrFree.exit

Vec_PtrFree.exit:                                 ; preds = %32, %37
  tail call void @free(ptr noundef nonnull %34) #12
  %38 = getelementptr inbounds nuw i8, ptr %0, i64 224
  %39 = load ptr, ptr %38, align 8, !tbaa !49
  %40 = getelementptr inbounds nuw i8, ptr %39, i64 8
  %41 = load ptr, ptr %40, align 8, !tbaa !35
  %.not.i42 = icmp eq ptr %41, null
  br i1 %.not.i42, label %Vec_PtrFree.exit43, label %42

42:                                               ; preds = %Vec_PtrFree.exit
  tail call void @free(ptr noundef nonnull %41) #12
  br label %Vec_PtrFree.exit43

Vec_PtrFree.exit43:                               ; preds = %Vec_PtrFree.exit, %42
  tail call void @free(ptr noundef nonnull %39) #12
  %43 = getelementptr inbounds nuw i8, ptr %0, i64 168
  %44 = load ptr, ptr %43, align 8, !tbaa !42
  %45 = getelementptr inbounds nuw i8, ptr %44, i64 8
  %46 = load ptr, ptr %45, align 8, !tbaa !35
  %.not.i44 = icmp eq ptr %46, null
  br i1 %.not.i44, label %Vec_PtrFree.exit45, label %47

47:                                               ; preds = %Vec_PtrFree.exit43
  tail call void @free(ptr noundef nonnull %46) #12
  br label %Vec_PtrFree.exit45

Vec_PtrFree.exit45:                               ; preds = %Vec_PtrFree.exit43, %47
  tail call void @free(ptr noundef nonnull %44) #12
  %48 = getelementptr inbounds nuw i8, ptr %0, i64 176
  %49 = load ptr, ptr %48, align 8, !tbaa !47
  %50 = getelementptr inbounds nuw i8, ptr %49, i64 8
  %51 = load ptr, ptr %50, align 8, !tbaa !46
  %.not.i46 = icmp eq ptr %51, null
  br i1 %.not.i46, label %Vec_IntFree.exit47, label %52

52:                                               ; preds = %Vec_PtrFree.exit45
  tail call void @free(ptr noundef nonnull %51) #12
  br label %Vec_IntFree.exit47

Vec_IntFree.exit47:                               ; preds = %Vec_PtrFree.exit45, %52
  tail call void @free(ptr noundef nonnull %49) #12
  %53 = getelementptr inbounds nuw i8, ptr %0, i64 128
  %54 = load ptr, ptr %53, align 8, !tbaa !36
  %55 = getelementptr inbounds nuw i8, ptr %54, i64 8
  %56 = load ptr, ptr %55, align 8, !tbaa !35
  %.not.i48 = icmp eq ptr %56, null
  br i1 %.not.i48, label %Vec_PtrFree.exit49, label %57

57:                                               ; preds = %Vec_IntFree.exit47
  tail call void @free(ptr noundef nonnull %56) #12
  br label %Vec_PtrFree.exit49

Vec_PtrFree.exit49:                               ; preds = %Vec_IntFree.exit47, %57
  tail call void @free(ptr noundef nonnull %54) #12
  %58 = getelementptr inbounds nuw i8, ptr %0, i64 32
  %59 = load ptr, ptr %58, align 8, !tbaa !33
  %.not37 = icmp eq ptr %59, null
  br i1 %.not37, label %61, label %60

60:                                               ; preds = %Vec_PtrFree.exit49
  tail call void @free(ptr noundef nonnull %59) #12
  store ptr null, ptr %58, align 8, !tbaa !33
  br label %61

61:                                               ; preds = %Vec_PtrFree.exit49, %60
  %62 = getelementptr inbounds nuw i8, ptr %0, i64 248
  %63 = load ptr, ptr %62, align 8, !tbaa !41
  %.not38 = icmp eq ptr %63, null
  br i1 %.not38, label %65, label %64

64:                                               ; preds = %61
  tail call void @free(ptr noundef nonnull %63) #12
  br label %65

65:                                               ; preds = %64, %61
  tail call void @free(ptr noundef nonnull %0) #12
  ret void
}